target datalayout = "e-m:e-p270:32:32-p271:32:32-p272:64:64-i64:64-i128:128-f80:128-n8:16:32:64-S128"
target triple = "x86_64-pc-linux-gnu"

@.str.1514 = private unnamed_addr constant [23 x i8] c"Invalid int length %d!\00", align 1
@.str.1581 = private unnamed_addr constant [4 x i8] c"%li\00", align 1

; Function Attrs: null_pointer_is_valid sspstrong uwtable
define internal i32 @format_amqp_1_0_int(ptr noundef %0, i32 noundef %1, i32 noundef %2, ptr noundef %3) #0 {
  %5 = alloca i32, align 4
  %6 = alloca ptr, align 8
  %7 = alloca i32, align 4
  %8 = alloca i32, align 4
  %9 = alloca ptr, align 8
  %10 = alloca i64, align 8
  %11 = alloca i32, align 4
  store ptr %0, ptr %6, align 8
  store i32 %1, ptr %7, align 4
  store i32 %2, ptr %8, align 4
  store ptr %3, ptr %9, align 8
  call void @llvm.lifetime.start.p0(i64 8, ptr %10) #11
  %12 = load i32, ptr %8, align 4
  %13 = icmp eq i32 %12, 1
  br i1 %13, label %14, label %19

14:                                               ; preds = %4
  %15 = load ptr, ptr %6, align 8
  %16 = load i32, ptr %7, align 4
  %17 = call signext i8 @tvb_get_int8(ptr noundef %15, i32 noundef %16)
  %18 = sext i8 %17 to i64
  store i64 %18, ptr %10, align 8
  br label %51

19:                                               ; preds = %4
  %20 = load i32, ptr %8, align 4
  %21 = icmp eq i32 %20, 2
  br i1 %21, label %22, label %27

22:                                               ; preds = %19
  %23 = load ptr, ptr %6, align 8
  %24 = load i32, ptr %7, align 4
  %25 = call signext i16 @tvb_get_ntohis(ptr noundef %23, i32 noundef %24)
  %26 = sext i16 %25 to i64
  store i64 %26, ptr %10, align 8
  br label %50

27:                                               ; preds = %19
  %28 = load i32, ptr %8, align 4
  %29 = icmp eq i32 %28, 4
  br i1 %29, label %30, label %35

30:                                               ; preds = %27
  %31 = load ptr, ptr %6, align 8
  %32 = load i32, ptr %7, align 4
  %33 = call i32 @tvb_get_ntohil(ptr noundef %31, i32 noundef %32)
  %34 = sext i32 %33 to i64
  store i64 %34, ptr %10, align 8
  br label %49

35:                                               ; preds = %27
  %36 = load i32, ptr %8, align 4
  %37 = icmp eq i32 %36, 8
  br i1 %37, label %38, label %42

38:                                               ; preds = %35
  %39 = load ptr, ptr %6, align 8
  %40 = load i32, ptr %7, align 4
  %41 = call i64 @tvb_get_ntohi64(ptr noundef %39, i32 noundef %40)
  store i64 %41, ptr %10, align 8
  br label %48

42:                                               ; preds = %35
  %43 = call ptr @wmem_packet_scope()
  %44 = load i32, ptr %8, align 4
  %45 = call noalias ptr (ptr, ptr, ...) @wmem_strdup_printf(ptr noundef %43, ptr noundef @.str.1514, i32 noundef %44)
  %46 = load ptr, ptr %9, align 8
  store ptr %45, ptr %46, align 8
  %47 = load i32, ptr %8, align 4
  store i32 %47, ptr %5, align 4
  store i32 1, ptr %11, align 4
  br label %57

48:                                               ; preds = %38
  br label %49

49:                                               ; preds = %48, %30
  br label %50

50:                                               ; preds = %49, %22
  br label %51

51:                                               ; preds = %50, %14
  %52 = call ptr @wmem_packet_scope()
  %53 = load i64, ptr %10, align 8
  %54 = call noalias ptr (ptr, ptr, ...) @wmem_strdup_printf(ptr noundef %52, ptr noundef @.str.1581, i64 noundef %53)
  %55 = load ptr, ptr %9, align 8
  store ptr %54, ptr %55, align 8
  %56 = load i32, ptr %8, align 4
  store i32 %56, ptr %5, align 4
  store i32 1, ptr %11, align 4
  br label %57

57:                                               ; preds = %51, %42
  call void @llvm.lifetime.end.p0(i64 8, ptr %10) #11
  %58 = load i32, ptr %5, align 4
  ret i32 %58
}